; Function Attrs: mustprogress uwtable
define noalias noundef ptr @_ZNK8LightGBM9SparseBinIjE14GetColWiseDataEPhPbPPNS_11BinIteratorE(ptr noundef nonnull align 8 dereferenceable(124) %0, ptr noundef writeonly captures(none) initializes((0, 1)) %1, ptr noundef writeonly captures(none) initializes((0, 1)) %2, ptr noundef writeonly captures(none) initializes((0, 8)) %3) unnamed_addr #1 align 2 personality ptr @__gxx_personality_v0 {
  store i8 1, ptr %2, align 1, !tbaa !79
  store i8 32, ptr %1, align 1, !tbaa !9
  %5 = tail call noalias noundef nonnull dereferenceable(40) ptr @_Znwm(i64 noundef 40) #38
  store ptr getelementptr inbounds nuw inrange(-16, 40) (i8, ptr @_ZTVN8LightGBM17SparseBinIteratorIjEE, i64 16), ptr %5, align 8, !tbaa !16
  %6 = getelementptr inbounds nuw i8, ptr %5, i64 8
  store ptr %0, ptr %6, align 8, !tbaa !413
  %7 = getelementptr inbounds nuw i8, ptr %0, i64 96
  %8 = getelementptr inbounds nuw i8, ptr %0, i64 104
  %9 = load ptr, ptr %8, align 8, !tbaa !244
  %10 = load ptr, ptr %7, align 8, !tbaa !245
  %.not = icmp eq ptr %9, %10
  br i1 %.not, label %12, label %11

11:                                               ; preds = %4
  %.sroa.0.0.copyload.i.i.i = load i32, ptr %10, align 4
  %.sroa.4.0..sroa_idx.i.i.i = getelementptr inbounds nuw i8, ptr %10, i64 4
  %.sroa.4.0.copyload.i.i.i = load i32, ptr %.sroa.4.0..sroa_idx.i.i.i, align 4
  br label %12

12:                                               ; preds = %11, %4
  %storemerge7.i.i.i = phi i32 [ %.sroa.0.0.copyload.i.i.i, %11 ], [ -1, %4 ]
  %storemerge.i.i.i = phi i32 [ %.sroa.4.0.copyload.i.i.i, %11 ], [ 0, %4 ]
  %13 = getelementptr inbounds nuw i8, ptr %5, i64 16
  %14 = getelementptr inbounds nuw i8, ptr %5, i64 20
  store i32 %storemerge7.i.i.i, ptr %14, align 4, !tbaa !10
  store i32 %storemerge.i.i.i, ptr %13, align 4, !tbaa !10
  store ptr %5, ptr %3, align 8, !tbaa !86
  ret ptr null
}